; ModuleID = '28/1182.c'
source_filename = "28/1182.c"
target datalayout = "e-m:e-p270:32:32-p271:32:32-p272:64:64-i64:64-f80:128-n8:16:32:64-S128"
target triple = "x86_64-pc-linux-gnu"

@.str = private unnamed_addr constant [4 x i8] c"%d,\00", align 1
@.str.1 = private unnamed_addr constant [3 x i8] c"%d\00", align 1

; Function Attrs: noinline nounwind uwtable
define dso_local void @main() #0 {
  %1 = alloca [100000 x i8], align 16
  %2 = alloca i32, align 4
  %3 = alloca [300 x i32], align 16
  %4 = alloca i32, align 4
  %5 = alloca i32, align 4
  %6 = alloca i32, align 4
  %7 = alloca i32, align 4
  %8 = alloca i32, align 4
  %9 = alloca i32, align 4
  store i32 0, i32* %2, align 4
  store i32 0, i32* %6, align 4
  store i32 0, i32* %4, align 4
  br label %10

10:                                               ; preds = %17, %0
  %11 = load i32, i32* %4, align 4
  %12 = icmp sle i32 %11, 300
  br i1 %12, label %13, label %20

13:                                               ; preds = %10
  %14 = load i32, i32* %4, align 4
  %15 = sext i32 %14 to i64
  %16 = getelementptr inbounds [300 x i32], [300 x i32]* %3, i64 0, i64 %15
  store i32 0, i32* %16, align 4
  br label %17

17:                                               ; preds = %13
  %18 = load i32, i32* %4, align 4
  %19 = add nsw i32 %18, 1
  store i32 %19, i32* %4, align 4
  br label %10

20:                                               ; preds = %10
  %21 = getelementptr inbounds [100000 x i8], [100000 x i8]* %1, i64 0, i64 0
  %22 = call i32 (i8*, ...) bitcast (i32 (...)* @gets to i32 (i8*, ...)*)(i8* %21)
  %23 = getelementptr inbounds [100000 x i8], [100000 x i8]* %1, i64 0, i64 0
  %24 = call i64 @strlen(i8* %23) #3
  %25 = trunc i64 %24 to i32
  store i32 %25, i32* %9, align 4
  store i32 0, i32* %4, align 4
  br label %26

26:                                               ; preds = %51, %20
  %27 = load i32, i32* %4, align 4
  %28 = load i32, i32* %9, align 4
  %29 = icmp sle i32 %27, %28
  br i1 %29, label %30, label %54

30:                                               ; preds = %26
  %31 = load i32, i32* %4, align 4
  %32 = sext i32 %31 to i64
  %33 = getelementptr inbounds [100000 x i8], [100000 x i8]* %1, i64 0, i64 %32
  %34 = load i8, i8* %33, align 1
  %35 = sext i8 %34 to i32
  %36 = icmp eq i32 %35, 32
  br i1 %36, label %37, label %44

37:                                               ; preds = %30
  %38 = load i32, i32* %6, align 4
  %39 = icmp ne i32 %38, 0
  br i1 %39, label %40, label %43

40:                                               ; preds = %37
  %41 = load i32, i32* %2, align 4
  %42 = add nsw i32 %41, 1
  store i32 %42, i32* %2, align 4
  store i32 0, i32* %6, align 4
  br label %43

43:                                               ; preds = %40, %37
  br label %50

44:                                               ; preds = %30
  %45 = load i32, i32* %2, align 4
  %46 = sext i32 %45 to i64
  %47 = getelementptr inbounds [300 x i32], [300 x i32]* %3, i64 0, i64 %46
  %48 = load i32, i32* %47, align 4
  %49 = add nsw i32 %48, 1
  store i32 %49, i32* %47, align 4
  store i32 1, i32* %6, align 4
  br label %50

50:                                               ; preds = %44, %43
  br label %51

51:                                               ; preds = %50
  %52 = load i32, i32* %4, align 4
  %53 = add nsw i32 %52, 1
  store i32 %53, i32* %4, align 4
  br label %26

54:                                               ; preds = %26
  %55 = load i32, i32* %2, align 4
  %56 = sext i32 %55 to i64
  %57 = getelementptr inbounds [300 x i32], [300 x i32]* %3, i64 0, i64 %56
  %58 = load i32, i32* %57, align 4
  %59 = icmp eq i32 %58, 0
  br i1 %59, label %60, label %61

60:                                               ; preds = %54
  store i32 1, i32* %7, align 4
  br label %62

61:                                               ; preds = %54
  store i32 0, i32* %7, align 4
  br label %62

62:                                               ; preds = %61, %60
  store i32 0, i32* %4, align 4
  br label %63

63:                                               ; preds = %75, %62
  %64 = load i32, i32* %4, align 4
  %65 = load i32, i32* %2, align 4
  %66 = load i32, i32* %7, align 4
  %67 = sub nsw i32 %65, %66
  %68 = icmp slt i32 %64, %67
  br i1 %68, label %69, label %78

69:                                               ; preds = %63
  %70 = load i32, i32* %4, align 4
  %71 = sext i32 %70 to i64
  %72 = getelementptr inbounds [300 x i32], [300 x i32]* %3, i64 0, i64 %71
  %73 = load i32, i32* %72, align 4
  %74 = call i32 (i8*, ...) @printf(i8* getelementptr inbounds ([4 x i8], [4 x i8]* @.str, i64 0, i64 0), i32 %73)
  br label %75

75:                                               ; preds = %69
  %76 = load i32, i32* %4, align 4
  %77 = add nsw i32 %76, 1
  store i32 %77, i32* %4, align 4
  br label %63

78:                                               ; preds = %63
  %79 = load i32, i32* %2, align 4
  %80 = load i32, i32* %7, align 4
  %81 = sub nsw i32 %79, %80
  %82 = sext i32 %81 to i64
  %83 = getelementptr inbounds [300 x i32], [300 x i32]* %3, i64 0, i64 %82
  %84 = load i32, i32* %83, align 4
  %85 = sub nsw i32 %84, 1
  %86 = call i32 (i8*, ...) @printf(i8* getelementptr inbounds ([3 x i8], [3 x i8]* @.str.1, i64 0, i64 0), i32 %85)
  ret void
}

declare dso_local i32 @gets(...) #1

; Function Attrs: nounwind readonly
declare dso_local i64 @strlen(i8*) #2

declare dso_local i32 @printf(i8*, ...) #1


!llvm.module.flags = !{!0}
!llvm.ident = !{!1}

!0 = !{i32 1, !"wchar_size", i32 4}
!1 = !{!"clang version 10.0.0-4ubuntu1 "}
