; ModuleID = 'source-C-CXX/27/1182.c'
source_filename = "source-C-CXX/27/1182.c"
target datalayout = "e-m:e-p270:32:32-p271:32:32-p272:64:64-i64:64-f80:128-n8:16:32:64-S128"
target triple = "x86_64-pc-linux-gnu"

@.str = private unnamed_addr constant [4 x i8] c"%d,\00", align 1
@.str.1 = private unnamed_addr constant [3 x i8] c"%d\00", align 1

; Function Attrs: nounwind sspstrong uwtable
define dso_local void @main() local_unnamed_addr #0 {
  %1 = alloca [100000 x i8], align 16
  %2 = alloca [300 x i32], align 16
  %3 = bitcast [300 x i32]* %2 to i8*
  %4 = getelementptr inbounds [100000 x i8], [100000 x i8]* %1, i64 0, i64 0
  call void @llvm.lifetime.start.p0i8(i64 100000, i8* nonnull %4) #6
  call void @llvm.lifetime.start.p0i8(i64 1200, i8* nonnull %3) #6
  call void @llvm.memset.p0i8.i64(i8* noundef nonnull align 16 dereferenceable(1204) %3, i8 0, i64 1204, i1 false)
  %5 = call i32 (i8*, ...) bitcast (i32 (...)* @gets to i32 (i8*, ...)*)(i8* nonnull %4) #6
  %6 = call i64 @strlen(i8* noundef nonnull %4) #7
  %7 = trunc i64 %6 to i32
  %8 = icmp slt i32 %7, 0
  br i1 %8, label %33, label %9

9:                                                ; preds = %0
  %10 = add i64 %6, 1
  %11 = and i64 %10, 4294967295
  br label %12

12:                                               ; preds = %9, %28
  %13 = phi i64 [ 0, %9 ], [ %31, %28 ]
  %14 = phi i32 [ 0, %9 ], [ %30, %28 ]
  %15 = phi i32 [ 0, %9 ], [ %29, %28 ]
  %16 = getelementptr inbounds [100000 x i8], [100000 x i8]* %1, i64 0, i64 %13
  %17 = load i8, i8* %16, align 1, !tbaa !5
  %18 = icmp eq i8 %17, 32
  br i1 %18, label %19, label %23

19:                                               ; preds = %12
  %20 = icmp ne i32 %15, 0
  %21 = zext i1 %20 to i32
  %22 = add nsw i32 %14, %21
  br label %28

23:                                               ; preds = %12
  %24 = sext i32 %14 to i64
  %25 = getelementptr inbounds [300 x i32], [300 x i32]* %2, i64 0, i64 %24
  %26 = load i32, i32* %25, align 4, !tbaa !8
  %27 = add nsw i32 %26, 1
  store i32 %27, i32* %25, align 4, !tbaa !8
  br label %28

28:                                               ; preds = %19, %23
  %29 = phi i32 [ 1, %23 ], [ 0, %19 ]
  %30 = phi i32 [ %14, %23 ], [ %22, %19 ]
  %31 = add nuw nsw i64 %13, 1
  %32 = icmp eq i64 %31, %11
  br i1 %32, label %33, label %12, !llvm.loop !10

33:                                               ; preds = %28, %0
  %34 = phi i32 [ 0, %0 ], [ %30, %28 ]
  %35 = sext i32 %34 to i64
  %36 = getelementptr inbounds [300 x i32], [300 x i32]* %2, i64 0, i64 %35
  %37 = load i32, i32* %36, align 4, !tbaa !8
  %38 = icmp eq i32 %37, 0
  %39 = sext i1 %38 to i32
  %40 = add i32 %34, %39
  %41 = icmp sgt i32 %40, 0
  br i1 %41, label %42, label %51

42:                                               ; preds = %33
  %43 = zext i32 %40 to i64
  br label %44

44:                                               ; preds = %42, %44
  %45 = phi i64 [ 0, %42 ], [ %49, %44 ]
  %46 = getelementptr inbounds [300 x i32], [300 x i32]* %2, i64 0, i64 %45
  %47 = load i32, i32* %46, align 4, !tbaa !8
  %48 = call i32 (i8*, ...) @printf(i8* nonnull dereferenceable(1) getelementptr inbounds ([4 x i8], [4 x i8]* @.str, i64 0, i64 0), i32 %47)
  %49 = add nuw nsw i64 %45, 1
  %50 = icmp eq i64 %49, %43
  br i1 %50, label %51, label %44, !llvm.loop !12

51:                                               ; preds = %44, %33
  %52 = sext i32 %40 to i64
  %53 = getelementptr inbounds [300 x i32], [300 x i32]* %2, i64 0, i64 %52
  %54 = load i32, i32* %53, align 4, !tbaa !8
  %55 = add nsw i32 %54, -1
  %56 = call i32 (i8*, ...) @printf(i8* nonnull dereferenceable(1) getelementptr inbounds ([3 x i8], [3 x i8]* @.str.1, i64 0, i64 0), i32 %55)
  call void @llvm.lifetime.end.p0i8(i64 1200, i8* nonnull %3) #6
  call void @llvm.lifetime.end.p0i8(i64 100000, i8* nonnull %4) #6
  ret void
}

; Function Attrs: argmemonly mustprogress nofree nosync nounwind willreturn
declare void @llvm.lifetime.start.p0i8(i64 immarg, i8* nocapture) #1

declare i32 @gets(...) local_unnamed_addr #2

; Function Attrs: argmemonly mustprogress nofree nounwind readonly willreturn
declare i64 @strlen(i8* nocapture) local_unnamed_addr #3

; Function Attrs: nofree nounwind
declare noundef i32 @printf(i8* nocapture noundef readonly, ...) local_unnamed_addr #4

; Function Attrs: argmemonly mustprogress nofree nosync nounwind willreturn
declare void @llvm.lifetime.end.p0i8(i64 immarg, i8* nocapture) #1

; Function Attrs: argmemonly nofree nounwind willreturn writeonly
declare void @llvm.memset.p0i8.i64(i8* nocapture writeonly, i8, i64, i1 immarg) #5


!llvm.module.flags = !{!0, !1, !2, !3}
!llvm.ident = !{!4}

!0 = !{i32 1, !"wchar_size", i32 4}
!1 = !{i32 7, !"PIC Level", i32 2}
!2 = !{i32 7, !"PIE Level", i32 2}
!3 = !{i32 7, !"uwtable", i32 1}
!4 = !{!"clang version 13.0.0"}
!5 = !{!6, !6, i64 0}
!6 = !{!"omnipotent char", !7, i64 0}
!7 = !{!"Simple C/C++ TBAA"}
!8 = !{!9, !9, i64 0}
!9 = !{!"int", !6, i64 0}
!10 = distinct !{!10, !11}
!11 = !{!"llvm.loop.mustprogress"}
!12 = distinct !{!12, !11}
